target datalayout = "e-m:e-p270:32:32-p271:32:32-p272:64:64-i64:64-i128:128-f80:128-n8:16:32:64-S128"
target triple = "x86_64-pc-linux-gnu"

; Function Attrs: nounwind sspstrong uwtable
define internal i32 @decode_array_index_from_pointer(ptr noundef %0, ptr noundef %1) #0 {
  %3 = alloca i32, align 4
  %4 = alloca ptr, align 8
  %5 = alloca ptr, align 8
  %6 = alloca i64, align 8
  %7 = alloca i64, align 8
  %8 = alloca i32, align 4
  store ptr %0, ptr %4, align 8, !tbaa !15
  store ptr %1, ptr %5, align 8, !tbaa !24
  call void @llvm.lifetime.start.p0(i64 8, ptr %6) #8
  store i64 0, ptr %6, align 8, !tbaa !8
  call void @llvm.lifetime.start.p0(i64 8, ptr %7) #8
  store i64 0, ptr %7, align 8, !tbaa !8
  %9 = load ptr, ptr %4, align 8, !tbaa !15
  %10 = getelementptr inbounds i8, ptr %9, i64 0
  %11 = load i8, ptr %10, align 1, !tbaa !17
  %12 = zext i8 %11 to i32
  %13 = icmp eq i32 %12, 48
  br i1 %13, label %14, label %27

14:                                               ; preds = %2
  %15 = load ptr, ptr %4, align 8, !tbaa !15
  %16 = getelementptr inbounds i8, ptr %15, i64 1
  %17 = load i8, ptr %16, align 1, !tbaa !17
  %18 = zext i8 %17 to i32
  %19 = icmp ne i32 %18, 0
  br i1 %19, label %20, label %27

20:                                               ; preds = %14
  %21 = load ptr, ptr %4, align 8, !tbaa !15
  %22 = getelementptr inbounds i8, ptr %21, i64 1
  %23 = load i8, ptr %22, align 1, !tbaa !17
  %24 = zext i8 %23 to i32
  %25 = icmp ne i32 %24, 47
  br i1 %25, label %26, label %27

26:                                               ; preds = %20
  store i32 0, ptr %3, align 4
  store i32 1, ptr %8, align 4
  br label %75

27:                                               ; preds = %20, %14, %2
  store i64 0, ptr %7, align 8, !tbaa !8
  br label %28

28:                                               ; preds = %54, %27
  %29 = load ptr, ptr %4, align 8, !tbaa !15
  %30 = load i64, ptr %7, align 8, !tbaa !8
  %31 = getelementptr inbounds nuw i8, ptr %29, i64 %30
  %32 = load i8, ptr %31, align 1, !tbaa !17
  %33 = zext i8 %32 to i32
  %34 = icmp sge i32 %33, 48
  br i1 %34, label %35, label %41

35:                                               ; preds = %28
  %36 = load ptr, ptr %4, align 8, !tbaa !15
  %37 = getelementptr inbounds i8, ptr %36, i64 0
  %38 = load i8, ptr %37, align 1, !tbaa !17
  %39 = zext i8 %38 to i32
  %40 = icmp sle i32 %39, 57
  br label %41

41:                                               ; preds = %35, %28
  %42 = phi i1 [ false, %28 ], [ %40, %35 ]
  br i1 %42, label %43, label %57

43:                                               ; preds = %41
  %44 = load i64, ptr %6, align 8, !tbaa !8
  %45 = mul i64 10, %44
  %46 = load ptr, ptr %4, align 8, !tbaa !15
  %47 = load i64, ptr %7, align 8, !tbaa !8
  %48 = getelementptr inbounds nuw i8, ptr %46, i64 %47
  %49 = load i8, ptr %48, align 1, !tbaa !17
  %50 = zext i8 %49 to i32
  %51 = sub nsw i32 %50, 48
  %52 = sext i32 %51 to i64
  %53 = add i64 %45, %52
  store i64 %53, ptr %6, align 8, !tbaa !8
  br label %54

54:                                               ; preds = %43
  %55 = load i64, ptr %7, align 8, !tbaa !8
  %56 = add i64 %55, 1
  store i64 %56, ptr %7, align 8, !tbaa !8
  br label %28

57:                                               ; preds = %41
  %58 = load ptr, ptr %4, align 8, !tbaa !15
  %59 = load i64, ptr %7, align 8, !tbaa !8
  %60 = getelementptr inbounds nuw i8, ptr %58, i64 %59
  %61 = load i8, ptr %60, align 1, !tbaa !17
  %62 = zext i8 %61 to i32
  %63 = icmp ne i32 %62, 0
  br i1 %63, label %64, label %72

64:                                               ; preds = %57
  %65 = load ptr, ptr %4, align 8, !tbaa !15
  %66 = load i64, ptr %7, align 8, !tbaa !8
  %67 = getelementptr inbounds nuw i8, ptr %65, i64 %66
  %68 = load i8, ptr %67, align 1, !tbaa !17
  %69 = zext i8 %68 to i32
  %70 = icmp ne i32 %69, 47
  br i1 %70, label %71, label %72

71:                                               ; preds = %64
  store i32 0, ptr %3, align 4
  store i32 1, ptr %8, align 4
  br label %75

72:                                               ; preds = %64, %57
  %73 = load i64, ptr %6, align 8, !tbaa !8
  %74 = load ptr, ptr %5, align 8, !tbaa !24
  store i64 %73, ptr %74, align 8, !tbaa !8
  store i32 1, ptr %3, align 4
  store i32 1, ptr %8, align 4
  br label %75

75:                                               ; preds = %72, %71, %26
  call void @llvm.lifetime.end.p0(i64 8, ptr %7) #8
  call void @llvm.lifetime.end.p0(i64 8, ptr %6) #8
  %76 = load i32, ptr %3, align 4
  ret i32 %76
}