; Function Attrs: nofree norecurse nosync nounwind sspstrong memory(argmem: readwrite) uwtable
define internal fastcc range(i32 0, 2) i32 @decode_array_index_from_pointer(ptr noundef nonnull readonly captures(none) %0, ptr noundef nonnull writeonly captures(none) %1) unnamed_addr #8 {
  %3 = load i8, ptr %0, align 1, !tbaa !13
  %.fr29 = freeze i8 %3
  %4 = icmp eq i8 %.fr29, 48
  br i1 %4, label %5, label %8

5:                                                ; preds = %2
  %6 = getelementptr inbounds nuw i8, ptr %0, i64 1
  %7 = load i8, ptr %6, align 1, !tbaa !13
  switch i8 %7, label %21 [
    i8 0, label %.lr.ph.split.preheader
    i8 47, label %.lr.ph.split.preheader
  ]

8:                                                ; preds = %2
  %9 = add i8 %.fr29, -48
  %or.cond24 = icmp ult i8 %9, 10
  br i1 %or.cond24, label %.lr.ph.split.preheader, label %.critedge

.lr.ph.split.preheader:                           ; preds = %5, %5, %8
  br label %.lr.ph.split

.lr.ph.split:                                     ; preds = %.lr.ph.split.preheader, %.lr.ph.split
  %10 = phi i8 [ %18, %.lr.ph.split ], [ %.fr29, %.lr.ph.split.preheader ]
  %.026 = phi i64 [ %16, %.lr.ph.split ], [ 0, %.lr.ph.split.preheader ]
  %.01625 = phi i64 [ %15, %.lr.ph.split ], [ 0, %.lr.ph.split.preheader ]
  %11 = zext i8 %10 to i64
  %12 = mul i64 %.01625, 10
  %13 = add nuw nsw i64 %11, 4294967248
  %14 = and i64 %13, 4294967295
  %15 = add i64 %14, %12
  %16 = add i64 %.026, 1
  %17 = getelementptr inbounds nuw i8, ptr %0, i64 %16
  %18 = load i8, ptr %17, align 1, !tbaa !13
  %19 = icmp ugt i8 %18, 47
  br i1 %19, label %.lr.ph.split, label %.critedge

.critedge:                                        ; preds = %.lr.ph.split, %8
  %.016.lcssa = phi i64 [ 0, %8 ], [ %15, %.lr.ph.split ]
  %.lcssa = phi i8 [ %.fr29, %8 ], [ %18, %.lr.ph.split ]
  switch i8 %.lcssa, label %21 [
    i8 0, label %20
    i8 47, label %20
  ]

20:                                               ; preds = %.critedge, %.critedge
  store i64 %.016.lcssa, ptr %1, align 8, !tbaa !20
  br label %21

21:                                               ; preds = %.critedge, %5, %20
  %.017 = phi i32 [ 1, %20 ], [ 0, %5 ], [ 0, %.critedge ]
  ret i32 %.017
}